target datalayout = "e-m:e-p270:32:32-p271:32:32-p272:64:64-i64:64-i128:128-f80:128-n8:16:32:64-S128"
target triple = "x86_64-pc-linux-gnu"

%struct.expert_field = type { i32, i32 }

@hf_ppp_fcs_16 = internal global i32 0, align 4
@hf_ppp_fcs_status = internal global i32 0, align 4
@ei_ppp_fcs = internal global %struct.expert_field zeroinitializer, align 4
@hf_ppp_fcs_32 = internal global i32 0, align 4
@.str.14 = private unnamed_addr constant [55 x i8] c"%s:%u: failed assertion \22DISSECTOR_ASSERT_NOT_REACHED\22\00", align 1
@.str.15 = private unnamed_addr constant [29 x i8] c"epan/dissectors/packet-ppp.c\00", align 1

; Function Attrs: null_pointer_is_valid sspstrong uwtable
define internal i32 @fcs32(ptr noundef %0) #1 {
  %2 = alloca i32, align 4
  %3 = alloca ptr, align 8
  %4 = alloca i32, align 4
  %5 = alloca i32, align 4
  store ptr %0, ptr %3, align 8
  call void @llvm.lifetime.start.p0(i64 4, ptr %4) #6
  %6 = load ptr, ptr %3, align 8
  %7 = call i32 @tvb_reported_length(ptr noundef %6)
  %8 = sub i32 %7, 4
  store i32 %8, ptr %4, align 4
  %9 = load i32, ptr %4, align 4
  %10 = icmp eq i32 %9, 0
  br i1 %10, label %11, label %12

11:                                               ; preds = %1
  store i32 0, ptr %2, align 4
  store i32 1, ptr %5, align 4
  br label %16

12:                                               ; preds = %1
  %13 = load ptr, ptr %3, align 8
  %14 = load i32, ptr %4, align 4
  %15 = call i32 @crc32_ccitt_tvb(ptr noundef %13, i32 noundef %14)
  store i32 %15, ptr %2, align 4
  store i32 1, ptr %5, align 4
  br label %16

16:                                               ; preds = %12, %11
  call void @llvm.lifetime.end.p0(i64 4, ptr %4) #6
  %17 = load i32, ptr %2, align 4
  ret i32 %17
}

; Function Attrs: null_pointer_is_valid sspstrong uwtable
define internal zeroext i16 @fcs16(ptr noundef %0) #1 {
  %2 = alloca i16, align 2
  %3 = alloca ptr, align 8
  %4 = alloca i32, align 4
  %5 = alloca i32, align 4
  store ptr %0, ptr %3, align 8
  call void @llvm.lifetime.start.p0(i64 4, ptr %4) #6
  %6 = load ptr, ptr %3, align 8
  %7 = call i32 @tvb_reported_length(ptr noundef %6)
  %8 = sub i32 %7, 2
  store i32 %8, ptr %4, align 4
  %9 = load i32, ptr %4, align 4
  %10 = icmp eq i32 %9, 0
  br i1 %10, label %11, label %12

11:                                               ; preds = %1
  store i16 0, ptr %2, align 2
  store i32 1, ptr %5, align 4
  br label %16

12:                                               ; preds = %1
  %13 = load ptr, ptr %3, align 8
  %14 = load i32, ptr %4, align 4
  %15 = call zeroext i16 @crc16_ccitt_tvb(ptr noundef %13, i32 noundef %14)
  store i16 %15, ptr %2, align 2
  store i32 1, ptr %5, align 4
  br label %16

16:                                               ; preds = %12, %11
  call void @llvm.lifetime.end.p0(i64 4, ptr %4) #6
  %17 = load i16, ptr %2, align 2
  ret i16 %17
}

; Function Attrs: null_pointer_is_valid sspstrong uwtable
define hidden ptr @decode_fcs(ptr noundef %0, ptr noundef %1, ptr noundef %2, i32 noundef %3, i32 noundef %4) #1 {
  %6 = alloca ptr, align 8
  %7 = alloca ptr, align 8
  %8 = alloca ptr, align 8
  %9 = alloca i32, align 4
  %10 = alloca i32, align 4
  %11 = alloca ptr, align 8
  %12 = alloca i32, align 4
  %13 = alloca i32, align 4
  store ptr %0, ptr %6, align 8
  store ptr %1, ptr %7, align 8
  store ptr %2, ptr %8, align 8
  store i32 %3, ptr %9, align 4
  store i32 %4, ptr %10, align 4
  call void @llvm.lifetime.start.p0(i64 8, ptr %11) #6
  call void @llvm.lifetime.start.p0(i64 4, ptr %12) #6
  call void @llvm.lifetime.start.p0(i64 4, ptr %13) #6
  %14 = load i32, ptr %9, align 4
  switch i32 %14, label %131 [
    i32 0, label %15
    i32 1, label %19
    i32 2, label %77
  ]

15:                                               ; preds = %5
  %16 = load ptr, ptr %6, align 8
  %17 = load i32, ptr %10, align 4
  %18 = call ptr @tvb_new_subset_remaining(ptr noundef %16, i32 noundef %17)
  store ptr %18, ptr %11, align 8
  br label %132

19:                                               ; preds = %5
  %20 = load ptr, ptr %6, align 8
  %21 = load i32, ptr %10, align 4
  %22 = call i32 @tvb_captured_length_remaining(ptr noundef %20, i32 noundef %21)
  store i32 %22, ptr %12, align 4
  %23 = load ptr, ptr %6, align 8
  %24 = load i32, ptr %10, align 4
  %25 = call i32 @tvb_reported_length_remaining(ptr noundef %23, i32 noundef %24)
  store i32 %25, ptr %13, align 4
  %26 = load i32, ptr %13, align 4
  %27 = icmp slt i32 %26, 2
  br i1 %27, label %31, label %28

28:                                               ; preds = %19
  %29 = load i32, ptr %12, align 4
  %30 = icmp slt i32 %29, 0
  br i1 %30, label %31, label %35

31:                                               ; preds = %28, %19
  %32 = load ptr, ptr %6, align 8
  %33 = load i32, ptr %10, align 4
  %34 = call ptr @tvb_new_subset_remaining(ptr noundef %32, i32 noundef %33)
  store ptr %34, ptr %11, align 8
  br label %76

35:                                               ; preds = %28
  %36 = load i32, ptr %12, align 4
  %37 = load i32, ptr %13, align 4
  %38 = icmp slt i32 %36, %37
  br i1 %38, label %39, label %53

39:                                               ; preds = %35
  %40 = load i32, ptr %13, align 4
  %41 = sub i32 %40, 2
  store i32 %41, ptr %13, align 4
  %42 = load i32, ptr %12, align 4
  %43 = load i32, ptr %13, align 4
  %44 = icmp sgt i32 %42, %43
  br i1 %44, label %45, label %47

45:                                               ; preds = %39
  %46 = load i32, ptr %13, align 4
  store i32 %46, ptr %12, align 4
  br label %47

47:                                               ; preds = %45, %39
  %48 = load ptr, ptr %6, align 8
  %49 = load i32, ptr %10, align 4
  %50 = load i32, ptr %12, align 4
  %51 = load i32, ptr %13, align 4
  %52 = call ptr @tvb_new_subset_length_caplen(ptr noundef %48, i32 noundef %49, i32 noundef %50, i32 noundef %51)
  store ptr %52, ptr %11, align 8
  br label %75

53:                                               ; preds = %35
  %54 = load i32, ptr %12, align 4
  %55 = sub i32 %54, 2
  store i32 %55, ptr %12, align 4
  %56 = load i32, ptr %13, align 4
  %57 = sub i32 %56, 2
  store i32 %57, ptr %13, align 4
  %58 = load ptr, ptr %6, align 8
  %59 = load i32, ptr %10, align 4
  %60 = load i32, ptr %12, align 4
  %61 = load i32, ptr %13, align 4
  %62 = call ptr @tvb_new_subset_length_caplen(ptr noundef %58, i32 noundef %59, i32 noundef %60, i32 noundef %61)
  store ptr %62, ptr %11, align 8
  %63 = load ptr, ptr %8, align 8
  %64 = load ptr, ptr %6, align 8
  %65 = load i32, ptr %10, align 4
  %66 = load i32, ptr %12, align 4
  %67 = add i32 %65, %66
  %68 = load i32, ptr @hf_ppp_fcs_16, align 4
  %69 = load i32, ptr @hf_ppp_fcs_status, align 4
  %70 = load ptr, ptr %7, align 8
  %71 = load ptr, ptr %6, align 8
  %72 = call zeroext i16 @fcs16(ptr noundef %71)
  %73 = zext i16 %72 to i32
  %74 = call ptr @proto_tree_add_checksum(ptr noundef %63, ptr noundef %64, i32 noundef %67, i32 noundef %68, i32 noundef %69, ptr noundef @ei_ppp_fcs, ptr noundef %70, i32 noundef %73, i32 noundef -2147483648, i32 noundef 1)
  br label %75

75:                                               ; preds = %53, %47
  br label %76

76:                                               ; preds = %75, %31
  br label %132

77:                                               ; preds = %5
  %78 = load ptr, ptr %6, align 8
  %79 = load i32, ptr %10, align 4
  %80 = call i32 @tvb_captured_length_remaining(ptr noundef %78, i32 noundef %79)
  store i32 %80, ptr %12, align 4
  %81 = load ptr, ptr %6, align 8
  %82 = load i32, ptr %10, align 4
  %83 = call i32 @tvb_reported_length_remaining(ptr noundef %81, i32 noundef %82)
  store i32 %83, ptr %13, align 4
  %84 = load i32, ptr %13, align 4
  %85 = icmp slt i32 %84, 4
  br i1 %85, label %86, label %90

86:                                               ; preds = %77
  %87 = load ptr, ptr %6, align 8
  %88 = load i32, ptr %10, align 4
  %89 = call ptr @tvb_new_subset_remaining(ptr noundef %87, i32 noundef %88)
  store ptr %89, ptr %11, align 8
  br label %130

90:                                               ; preds = %77
  %91 = load i32, ptr %12, align 4
  %92 = load i32, ptr %13, align 4
  %93 = icmp slt i32 %91, %92
  br i1 %93, label %94, label %108

94:                                               ; preds = %90
  %95 = load i32, ptr %13, align 4
  %96 = sub i32 %95, 4
  store i32 %96, ptr %13, align 4
  %97 = load i32, ptr %12, align 4
  %98 = load i32, ptr %13, align 4
  %99 = icmp sgt i32 %97, %98
  br i1 %99, label %100, label %102

100:                                              ; preds = %94
  %101 = load i32, ptr %13, align 4
  store i32 %101, ptr %12, align 4
  br label %102

102:                                              ; preds = %100, %94
  %103 = load ptr, ptr %6, align 8
  %104 = load i32, ptr %10, align 4
  %105 = load i32, ptr %12, align 4
  %106 = load i32, ptr %13, align 4
  %107 = call ptr @tvb_new_subset_length_caplen(ptr noundef %103, i32 noundef %104, i32 noundef %105, i32 noundef %106)
  store ptr %107, ptr %11, align 8
  br label %129

108:                                              ; preds = %90
  %109 = load i32, ptr %12, align 4
  %110 = sub i32 %109, 4
  store i32 %110, ptr %12, align 4
  %111 = load i32, ptr %13, align 4
  %112 = sub i32 %111, 4
  store i32 %112, ptr %13, align 4
  %113 = load ptr, ptr %6, align 8
  %114 = load i32, ptr %10, align 4
  %115 = load i32, ptr %12, align 4
  %116 = load i32, ptr %13, align 4
  %117 = call ptr @tvb_new_subset_length_caplen(ptr noundef %113, i32 noundef %114, i32 noundef %115, i32 noundef %116)
  store ptr %117, ptr %11, align 8
  %118 = load ptr, ptr %8, align 8
  %119 = load ptr, ptr %6, align 8
  %120 = load i32, ptr %10, align 4
  %121 = load i32, ptr %12, align 4
  %122 = add i32 %120, %121
  %123 = load i32, ptr @hf_ppp_fcs_32, align 4
  %124 = load i32, ptr @hf_ppp_fcs_status, align 4
  %125 = load ptr, ptr %7, align 8
  %126 = load ptr, ptr %6, align 8
  %127 = call i32 @fcs32(ptr noundef %126)
  %128 = call ptr @proto_tree_add_checksum(ptr noundef %118, ptr noundef %119, i32 noundef %122, i32 noundef %123, i32 noundef %124, ptr noundef @ei_ppp_fcs, ptr noundef %125, i32 noundef %127, i32 noundef -2147483648, i32 noundef 1)
  br label %129

129:                                              ; preds = %108, %102
  br label %130

130:                                              ; preds = %129, %86
  br label %132

131:                                              ; preds = %5
  call void (ptr, ...) @proto_report_dissector_bug(ptr noundef @.str.14, ptr noundef @.str.15, i32 noundef 1831) #7
  unreachable

132:                                              ; preds = %130, %76, %15
  %133 = load ptr, ptr %11, align 8
  call void @llvm.lifetime.end.p0(i64 4, ptr %13) #6
  call void @llvm.lifetime.end.p0(i64 4, ptr %12) #6
  call void @llvm.lifetime.end.p0(i64 8, ptr %11) #6
  ret ptr %133
}