; Function Attrs: null_pointer_is_valid sspstrong uwtable
define hidden ptr @decode_fcs(ptr noundef %0, ptr noundef %1, ptr noundef %2, i32 noundef %3, i32 noundef %4) local_unnamed_addr #1 {
  switch i32 %3, label %58 [
    i32 0, label %6
    i32 1, label %8
    i32 2, label %34
  ]

6:                                                ; preds = %5
  %7 = tail call ptr @tvb_new_subset_remaining(ptr noundef %0, i32 noundef %4)
  br label %59

8:                                                ; preds = %5
  %9 = tail call i32 @tvb_captured_length_remaining(ptr noundef %0, i32 noundef %4)
  %10 = tail call i32 @tvb_reported_length_remaining(ptr noundef %0, i32 noundef %4)
  %11 = icmp slt i32 %10, 2
  %12 = icmp slt i32 %9, 0
  %or.cond = select i1 %11, i1 true, i1 %12
  br i1 %or.cond, label %13, label %15

13:                                               ; preds = %8
  %14 = tail call ptr @tvb_new_subset_remaining(ptr noundef %0, i32 noundef %4)
  br label %59

15:                                               ; preds = %8
  %16 = icmp samesign ult i32 %9, %10
  br i1 %16, label %17, label %20

17:                                               ; preds = %15
  %18 = add nsw i32 %10, -2
  %spec.select = tail call i32 @llvm.umin.i32(i32 %9, i32 %18)
  %19 = tail call ptr @tvb_new_subset_length_caplen(ptr noundef %0, i32 noundef %4, i32 noundef %spec.select, i32 noundef %18)
  br label %59

20:                                               ; preds = %15
  %21 = add nsw i32 %9, -2
  %22 = add nsw i32 %10, -2
  %23 = tail call ptr @tvb_new_subset_length_caplen(ptr noundef %0, i32 noundef %4, i32 noundef %21, i32 noundef %22)
  %24 = add i32 %21, %4
  %25 = load i32, ptr @hf_ppp_fcs_16, align 4
  %26 = load i32, ptr @hf_ppp_fcs_status, align 4
  %27 = tail call i32 @tvb_reported_length(ptr noundef %0)
  %28 = add i32 %27, -2
  %29 = icmp eq i32 %28, 0
  br i1 %29, label %fcs16.exit, label %30

30:                                               ; preds = %20
  %31 = tail call zeroext i16 @crc16_ccitt_tvb(ptr noundef %0, i32 noundef %28)
  %32 = zext i16 %31 to i32
  br label %fcs16.exit

fcs16.exit:                                       ; preds = %20, %30
  %.0.i = phi i32 [ %32, %30 ], [ 0, %20 ]
  %33 = tail call ptr @proto_tree_add_checksum(ptr noundef %2, ptr noundef %0, i32 noundef %24, i32 noundef %25, i32 noundef %26, ptr noundef nonnull @ei_ppp_fcs, ptr noundef %1, i32 noundef %.0.i, i32 noundef -2147483648, i32 noundef 1)
  br label %59

34:                                               ; preds = %5
  %35 = tail call i32 @tvb_captured_length_remaining(ptr noundef %0, i32 noundef %4)
  %36 = tail call i32 @tvb_reported_length_remaining(ptr noundef %0, i32 noundef %4)
  %37 = icmp slt i32 %36, 4
  br i1 %37, label %38, label %40

38:                                               ; preds = %34
  %39 = tail call ptr @tvb_new_subset_remaining(ptr noundef %0, i32 noundef %4)
  br label %59

40:                                               ; preds = %34
  %41 = icmp slt i32 %35, %36
  br i1 %41, label %42, label %45

42:                                               ; preds = %40
  %43 = add nsw i32 %36, -4
  %spec.select70 = tail call i32 @llvm.smin.i32(i32 %35, i32 %43)
  %44 = tail call ptr @tvb_new_subset_length_caplen(ptr noundef %0, i32 noundef %4, i32 noundef %spec.select70, i32 noundef %43)
  br label %59

45:                                               ; preds = %40
  %46 = add nsw i32 %35, -4
  %47 = add nsw i32 %36, -4
  %48 = tail call ptr @tvb_new_subset_length_caplen(ptr noundef %0, i32 noundef %4, i32 noundef %46, i32 noundef %47)
  %49 = add i32 %46, %4
  %50 = load i32, ptr @hf_ppp_fcs_32, align 4
  %51 = load i32, ptr @hf_ppp_fcs_status, align 4
  %52 = tail call i32 @tvb_reported_length(ptr noundef %0)
  %53 = add i32 %52, -4
  %54 = icmp eq i32 %53, 0
  br i1 %54, label %fcs32.exit, label %55

55:                                               ; preds = %45
  %56 = tail call i32 @crc32_ccitt_tvb(ptr noundef %0, i32 noundef %53)
  br label %fcs32.exit

fcs32.exit:                                       ; preds = %45, %55
  %.0.i71 = phi i32 [ %56, %55 ], [ 0, %45 ]
  %57 = tail call ptr @proto_tree_add_checksum(ptr noundef %2, ptr noundef %0, i32 noundef %49, i32 noundef %50, i32 noundef %51, ptr noundef nonnull @ei_ppp_fcs, ptr noundef %1, i32 noundef %.0.i71, i32 noundef -2147483648, i32 noundef 1)
  br label %59

58:                                               ; preds = %5
  tail call void (ptr, ...) @proto_report_dissector_bug(ptr noundef nonnull @.str.14, ptr noundef nonnull @.str.15, i32 noundef 1831) #6
  unreachable

59:                                               ; preds = %38, %fcs32.exit, %42, %13, %fcs16.exit, %17, %6
  %.063 = phi ptr [ %39, %38 ], [ %44, %42 ], [ %48, %fcs32.exit ], [ %14, %13 ], [ %19, %17 ], [ %23, %fcs16.exit ], [ %7, %6 ]
  ret ptr %.063
}